; ModuleID = '50/139.c'
source_filename = "50/139.c"
target datalayout = "e-m:e-p270:32:32-p271:32:32-p272:64:64-i64:64-f80:128-n8:16:32:64-S128"
target triple = "x86_64-pc-linux-gnu"

@__const.main.m = private unnamed_addr constant [13 x i32] [i32 0, i32 31, i32 28, i32 31, i32 30, i32 31, i32 30, i32 31, i32 31, i32 30, i32 31, i32 30, i32 31], align 16
@.str = private unnamed_addr constant [3 x i8] c"%d\00", align 1
@.str.1 = private unnamed_addr constant [4 x i8] c"%d\0A\00", align 1

; Function Attrs: noinline nounwind uwtable
define dso_local i32 @main() #0 {
  %1 = alloca i32, align 4
  %2 = alloca i32, align 4
  %3 = alloca i32, align 4
  %4 = alloca [13 x i32], align 16
  %5 = alloca i32, align 4
  %6 = alloca i32, align 4
  store i32 0, i32* %1, align 4
  %7 = bitcast [13 x i32]* %4 to i8*
  call void @llvm.memcpy.p0i8.p0i8.i64(i8* align 16 %7, i8* align 16 bitcast ([13 x i32]* @__const.main.m to i8*), i64 52, i1 false)
  %8 = call i32 (i8*, ...) @__isoc99_scanf(i8* getelementptr inbounds ([3 x i8], [3 x i8]* @.str, i64 0, i64 0), i32* %2)
  %9 = load i32, i32* %2, align 4
  %10 = sub nsw i32 %9, 1
  store i32 %10, i32* %6, align 4
  store i32 1, i32* %5, align 4
  br label %11

11:                                               ; preds = %42, %0
  %12 = load i32, i32* %5, align 4
  %13 = icmp sle i32 %12, 12
  br i1 %13, label %14, label %45

14:                                               ; preds = %11
  store i32 0, i32* %3, align 4
  br label %15

15:                                               ; preds = %40, %14
  %16 = load i32, i32* %3, align 4
  %17 = load i32, i32* %5, align 4
  %18 = sext i32 %17 to i64
  %19 = getelementptr inbounds [13 x i32], [13 x i32]* %4, i64 0, i64 %18
  %20 = load i32, i32* %19, align 4
  %21 = icmp slt i32 %16, %20
  br i1 %21, label %22, label %41

22:                                               ; preds = %15
  %23 = load i32, i32* %3, align 4
  %24 = add nsw i32 %23, 1
  store i32 %24, i32* %3, align 4
  %25 = load i32, i32* %6, align 4
  %26 = icmp slt i32 %25, 7
  br i1 %26, label %27, label %30

27:                                               ; preds = %22
  %28 = load i32, i32* %6, align 4
  %29 = add nsw i32 %28, 1
  store i32 %29, i32* %6, align 4
  br label %31

30:                                               ; preds = %22
  store i32 1, i32* %6, align 4
  br label %31

31:                                               ; preds = %30, %27
  %32 = load i32, i32* %3, align 4
  %33 = icmp eq i32 %32, 13
  br i1 %33, label %34, label %40

34:                                               ; preds = %31
  %35 = load i32, i32* %6, align 4
  %36 = icmp eq i32 %35, 5
  br i1 %36, label %37, label %40

37:                                               ; preds = %34
  %38 = load i32, i32* %5, align 4
  %39 = call i32 (i8*, ...) @printf(i8* getelementptr inbounds ([4 x i8], [4 x i8]* @.str.1, i64 0, i64 0), i32 %38)
  br label %40

40:                                               ; preds = %37, %34, %31
  br label %15

41:                                               ; preds = %15
  br label %42

42:                                               ; preds = %41
  %43 = load i32, i32* %5, align 4
  %44 = add nsw i32 %43, 1
  store i32 %44, i32* %5, align 4
  br label %11

45:                                               ; preds = %11
  ret i32 0
}

; Function Attrs: argmemonly nounwind willreturn
declare void @llvm.memcpy.p0i8.p0i8.i64(i8* noalias nocapture writeonly, i8* noalias nocapture readonly, i64, i1 immarg) #1

declare dso_local i32 @__isoc99_scanf(i8*, ...) #2

declare dso_local i32 @printf(i8*, ...) #2


!llvm.module.flags = !{!0}
!llvm.ident = !{!1}

!0 = !{i32 1, !"wchar_size", i32 4}
!1 = !{!"clang version 10.0.0-4ubuntu1 "}
